target datalayout = "e-m:e-p270:32:32-p271:32:32-p272:64:64-i64:64-i128:128-f80:128-n8:16:32:64-S128"
target triple = "x86_64-pc-linux-gnu"

%"class.draco::Mesh" = type { %"class.draco::PointCloud.base", %"class.std::vector.7", %"class.draco::IndexTypeVector" }
%"class.draco::PointCloud.base" = type <{ ptr, %"class.std::unique_ptr", %"class.std::vector", [5 x %"class.std::vector.2"], i32 }>
%"class.std::unique_ptr" = type { %"struct.std::__uniq_ptr_data" }
%"struct.std::__uniq_ptr_data" = type { %"class.std::__uniq_ptr_impl" }
%"class.std::__uniq_ptr_impl" = type { %"class.std::tuple" }
%"class.std::tuple" = type { %"struct.std::_Tuple_impl" }
%"struct.std::_Tuple_impl" = type { %"struct.std::_Head_base.1" }
%"struct.std::_Head_base.1" = type { ptr }
%"class.std::vector" = type { %"struct.std::_Vector_base" }
%"struct.std::_Vector_base" = type { %"struct.std::_Vector_base<std::unique_ptr<draco::PointAttribute>, std::allocator<std::unique_ptr<draco::PointAttribute>>>::_Vector_impl" }
%"struct.std::_Vector_base<std::unique_ptr<draco::PointAttribute>, std::allocator<std::unique_ptr<draco::PointAttribute>>>::_Vector_impl" = type { %"struct.std::_Vector_base<std::unique_ptr<draco::PointAttribute>, std::allocator<std::unique_ptr<draco::PointAttribute>>>::_Vector_impl_data" }
%"struct.std::_Vector_base<std::unique_ptr<draco::PointAttribute>, std::allocator<std::unique_ptr<draco::PointAttribute>>>::_Vector_impl_data" = type { ptr, ptr, ptr }
%"class.std::vector.2" = type { %"struct.std::_Vector_base.3" }
%"struct.std::_Vector_base.3" = type { %"struct.std::_Vector_base<int, std::allocator<int>>::_Vector_impl" }
%"struct.std::_Vector_base<int, std::allocator<int>>::_Vector_impl" = type { %"struct.std::_Vector_base<int, std::allocator<int>>::_Vector_impl_data" }
%"struct.std::_Vector_base<int, std::allocator<int>>::_Vector_impl_data" = type { ptr, ptr, ptr }
%"class.std::vector.7" = type { %"struct.std::_Vector_base.8" }
%"struct.std::_Vector_base.8" = type { %"struct.std::_Vector_base<draco::Mesh::AttributeData, std::allocator<draco::Mesh::AttributeData>>::_Vector_impl" }
%"struct.std::_Vector_base<draco::Mesh::AttributeData, std::allocator<draco::Mesh::AttributeData>>::_Vector_impl" = type { %"struct.std::_Vector_base<draco::Mesh::AttributeData, std::allocator<draco::Mesh::AttributeData>>::_Vector_impl_data" }
%"struct.std::_Vector_base<draco::Mesh::AttributeData, std::allocator<draco::Mesh::AttributeData>>::_Vector_impl_data" = type { ptr, ptr, ptr }
%"class.draco::IndexTypeVector" = type { %"class.std::vector.12" }
%"class.std::vector.12" = type { %"struct.std::_Vector_base.13" }
%"struct.std::_Vector_base.13" = type { %"struct.std::_Vector_base<std::array<draco::IndexType<unsigned int, draco::PointIndex_tag_type_>, 3>, std::allocator<std::array<draco::IndexType<unsigned int, draco::PointIndex_tag_type_>, 3>>>::_Vector_impl" }
%"struct.std::_Vector_base<std::array<draco::IndexType<unsigned int, draco::PointIndex_tag_type_>, 3>, std::allocator<std::array<draco::IndexType<unsigned int, draco::PointIndex_tag_type_>, 3>>>::_Vector_impl" = type { %"struct.std::_Vector_base<std::array<draco::IndexType<unsigned int, draco::PointIndex_tag_type_>, 3>, std::allocator<std::array<draco::IndexType<unsigned int, draco::PointIndex_tag_type_>, 3>>>::_Vector_impl_data" }
%"struct.std::_Vector_base<std::array<draco::IndexType<unsigned int, draco::PointIndex_tag_type_>, 3>, std::allocator<std::array<draco::IndexType<unsigned int, draco::PointIndex_tag_type_>, 3>>>::_Vector_impl_data" = type { ptr, ptr, ptr }
%"class.draco::IndexType" = type { i32 }
%"class.draco::IndexTypeVector.17" = type { %"class.std::vector.18" }
%"class.std::vector.18" = type { %"struct.std::_Vector_base.19" }
%"struct.std::_Vector_base.19" = type { %"struct.std::_Vector_base<draco::IndexType<unsigned int, draco::PointIndex_tag_type_>, std::allocator<draco::IndexType<unsigned int, draco::PointIndex_tag_type_>>>::_Vector_impl" }
%"struct.std::_Vector_base<draco::IndexType<unsigned int, draco::PointIndex_tag_type_>, std::allocator<draco::IndexType<unsigned int, draco::PointIndex_tag_type_>>>::_Vector_impl" = type { %"struct.std::_Vector_base<draco::IndexType<unsigned int, draco::PointIndex_tag_type_>, std::allocator<draco::IndexType<unsigned int, draco::PointIndex_tag_type_>>>::_Vector_impl_data" }
%"struct.std::_Vector_base<draco::IndexType<unsigned int, draco::PointIndex_tag_type_>, std::allocator<draco::IndexType<unsigned int, draco::PointIndex_tag_type_>>>::_Vector_impl_data" = type { ptr, ptr, ptr }
%"struct.std::array" = type { [3 x %"class.draco::IndexType.23"] }
%"class.draco::IndexType.23" = type { i32 }

; Function Attrs: mustprogress nounwind uwtable
define linkonce_odr noundef i64 @_ZNKSt6vectorISt5arrayIN5draco9IndexTypeIjNS1_20PointIndex_tag_type_EEELm3EESaIS5_EE4sizeEv(ptr noundef nonnull align 8 dereferenceable(24) %0) #5 comdat align 2 {
  %2 = alloca ptr, align 8
  store ptr %0, ptr %2, align 8
  %3 = load ptr, ptr %2, align 8
  %4 = getelementptr inbounds %"struct.std::_Vector_base.13", ptr %3, i32 0, i32 0
  %5 = getelementptr inbounds %"struct.std::_Vector_base<std::array<draco::IndexType<unsigned int, draco::PointIndex_tag_type_>, 3>, std::allocator<std::array<draco::IndexType<unsigned int, draco::PointIndex_tag_type_>, 3>>>::_Vector_impl_data", ptr %4, i32 0, i32 1
  %6 = load ptr, ptr %5, align 8
  %7 = getelementptr inbounds %"struct.std::_Vector_base.13", ptr %3, i32 0, i32 0
  %8 = getelementptr inbounds %"struct.std::_Vector_base<std::array<draco::IndexType<unsigned int, draco::PointIndex_tag_type_>, 3>, std::allocator<std::array<draco::IndexType<unsigned int, draco::PointIndex_tag_type_>, 3>>>::_Vector_impl_data", ptr %7, i32 0, i32 0
  %9 = load ptr, ptr %8, align 8
  %10 = ptrtoint ptr %6 to i64
  %11 = ptrtoint ptr %9 to i64
  %12 = sub i64 %10, %11
  %13 = sdiv exact i64 %12, 12
  ret i64 %13
}

; Function Attrs: mustprogress nounwind uwtable
define linkonce_odr noundef nonnull align 4 dereferenceable(4) ptr @_ZNKSt6vectorIN5draco9IndexTypeIjNS0_20PointIndex_tag_type_EEESaIS3_EEixEm(ptr noundef nonnull align 8 dereferenceable(24) %0, i64 noundef %1) #5 comdat align 2 {
  %3 = alloca ptr, align 8
  %4 = alloca i64, align 8
  store ptr %0, ptr %3, align 8
  store i64 %1, ptr %4, align 8
  %5 = load ptr, ptr %3, align 8
  %6 = getelementptr inbounds %"struct.std::_Vector_base.19", ptr %5, i32 0, i32 0
  %7 = getelementptr inbounds %"struct.std::_Vector_base<draco::IndexType<unsigned int, draco::PointIndex_tag_type_>, std::allocator<draco::IndexType<unsigned int, draco::PointIndex_tag_type_>>>::_Vector_impl_data", ptr %6, i32 0, i32 0
  %8 = load ptr, ptr %7, align 8
  %9 = load i64, ptr %4, align 8
  %10 = getelementptr inbounds %"class.draco::IndexType.23", ptr %8, i64 %9
  ret ptr %10
}

; Function Attrs: mustprogress nounwind uwtable
define linkonce_odr noundef i32 @_ZNK5draco9IndexTypeIjNS_20PointIndex_tag_type_EE5valueEv(ptr noundef nonnull align 4 dereferenceable(4) %0) #5 comdat align 2 {
  %2 = alloca ptr, align 8
  store ptr %0, ptr %2, align 8
  %3 = load ptr, ptr %2, align 8
  %4 = getelementptr inbounds %"class.draco::IndexType.23", ptr %3, i32 0, i32 0
  %5 = load i32, ptr %4, align 4
  ret i32 %5
}

; Function Attrs: mustprogress nounwind uwtable
define linkonce_odr noundef nonnull align 4 dereferenceable(4) ptr @_ZNSt14__array_traitsIN5draco9IndexTypeIjNS0_20PointIndex_tag_type_EEELm3EE6_S_refERA3_KS3_m(ptr noundef nonnull align 4 dereferenceable(12) %0, i64 noundef %1) #5 comdat align 2 {
  %3 = alloca ptr, align 8
  %4 = alloca i64, align 8
  store ptr %0, ptr %3, align 8
  store i64 %1, ptr %4, align 8
  %5 = load ptr, ptr %3, align 8
  %6 = load i64, ptr %4, align 8
  %7 = getelementptr inbounds [3 x %"class.draco::IndexType.23"], ptr %5, i64 0, i64 %6
  ret ptr %7
}

; Function Attrs: mustprogress nounwind uwtable
define linkonce_odr noundef nonnull align 4 dereferenceable(12) ptr @_ZNSt6vectorISt5arrayIN5draco9IndexTypeIjNS1_20PointIndex_tag_type_EEELm3EESaIS5_EEixEm(ptr noundef nonnull align 8 dereferenceable(24) %0, i64 noundef %1) #5 comdat align 2 {
  %3 = alloca ptr, align 8
  %4 = alloca i64, align 8
  store ptr %0, ptr %3, align 8
  store i64 %1, ptr %4, align 8
  %5 = load ptr, ptr %3, align 8
  %6 = getelementptr inbounds %"struct.std::_Vector_base.13", ptr %5, i32 0, i32 0
  %7 = getelementptr inbounds %"struct.std::_Vector_base<std::array<draco::IndexType<unsigned int, draco::PointIndex_tag_type_>, 3>, std::allocator<std::array<draco::IndexType<unsigned int, draco::PointIndex_tag_type_>, 3>>>::_Vector_impl_data", ptr %6, i32 0, i32 0
  %8 = load ptr, ptr %7, align 8
  %9 = load i64, ptr %4, align 8
  %10 = getelementptr inbounds %"struct.std::array", ptr %8, i64 %9
  ret ptr %10
}

; Function Attrs: mustprogress nounwind uwtable
define linkonce_odr noundef i32 @_ZNK5draco9IndexTypeIjNS_19FaceIndex_tag_type_EE5valueEv(ptr noundef nonnull align 4 dereferenceable(4) %0) #5 comdat align 2 {
  %2 = alloca ptr, align 8
  store ptr %0, ptr %2, align 8
  %3 = load ptr, ptr %2, align 8
  %4 = getelementptr inbounds %"class.draco::IndexType", ptr %3, i32 0, i32 0
  %5 = load i32, ptr %4, align 4
  ret i32 %5
}

; Function Attrs: mustprogress nounwind uwtable
define linkonce_odr noundef i64 @_ZNK5draco15IndexTypeVectorINS_9IndexTypeIjNS_19FaceIndex_tag_type_EEESt5arrayINS1_IjNS_20PointIndex_tag_type_EEELm3EEE4sizeEv(ptr noundef nonnull align 8 dereferenceable(24) %0) #5 comdat align 2 {
  %2 = alloca ptr, align 8
  store ptr %0, ptr %2, align 8
  %3 = load ptr, ptr %2, align 8
  %4 = getelementptr inbounds %"class.draco::IndexTypeVector", ptr %3, i32 0, i32 0
  %5 = call noundef i64 @_ZNKSt6vectorISt5arrayIN5draco9IndexTypeIjNS1_20PointIndex_tag_type_EEELm3EESaIS5_EE4sizeEv(ptr noundef nonnull align 8 dereferenceable(24) %4) #3
  ret i64 %5
}

; Function Attrs: mustprogress nounwind uwtable
define linkonce_odr noundef nonnull align 4 dereferenceable(4) ptr @_ZN5draco9IndexTypeIjNS_19FaceIndex_tag_type_EEppEv(ptr noundef nonnull align 4 dereferenceable(4) %0) #5 comdat align 2 {
  %2 = alloca ptr, align 8
  store ptr %0, ptr %2, align 8
  %3 = load ptr, ptr %2, align 8
  %4 = getelementptr inbounds %"class.draco::IndexType", ptr %3, i32 0, i32 0
  %5 = load i32, ptr %4, align 4
  %6 = add i32 %5, 1
  store i32 %6, ptr %4, align 4
  ret ptr %3
}

; Function Attrs: mustprogress nounwind uwtable
define linkonce_odr noundef nonnull align 4 dereferenceable(4) ptr @_ZN5draco9IndexTypeIjNS_20PointIndex_tag_type_EEaSERKS2_(ptr noundef nonnull align 4 dereferenceable(4) %0, ptr noundef nonnull align 4 dereferenceable(4) %1) #5 comdat align 2 {
  %3 = alloca ptr, align 8
  %4 = alloca ptr, align 8
  store ptr %0, ptr %3, align 8
  store ptr %1, ptr %4, align 8
  %5 = load ptr, ptr %3, align 8
  %6 = load ptr, ptr %4, align 8
  %7 = getelementptr inbounds %"class.draco::IndexType.23", ptr %6, i32 0, i32 0
  %8 = load i32, ptr %7, align 4
  %9 = getelementptr inbounds %"class.draco::IndexType.23", ptr %5, i32 0, i32 0
  store i32 %8, ptr %9, align 4
  ret ptr %5
}

; Function Attrs: mustprogress uwtable
define linkonce_odr noundef nonnull align 4 dereferenceable(4) ptr @_ZNK5draco15IndexTypeVectorINS_9IndexTypeIjNS_20PointIndex_tag_type_EEES3_EixERKS3_(ptr noundef nonnull align 8 dereferenceable(24) %0, ptr noundef nonnull align 4 dereferenceable(4) %1) #4 comdat align 2 {
  %3 = alloca ptr, align 8
  %4 = alloca ptr, align 8
  store ptr %0, ptr %3, align 8
  store ptr %1, ptr %4, align 8
  %5 = load ptr, ptr %3, align 8
  %6 = getelementptr inbounds %"class.draco::IndexTypeVector.17", ptr %5, i32 0, i32 0
  %7 = load ptr, ptr %4, align 8
  %8 = call noundef i32 @_ZNK5draco9IndexTypeIjNS_20PointIndex_tag_type_EE5valueEv(ptr noundef nonnull align 4 dereferenceable(4) %7)
  %9 = zext i32 %8 to i64
  %10 = call noundef nonnull align 4 dereferenceable(4) ptr @_ZNKSt6vectorIN5draco9IndexTypeIjNS0_20PointIndex_tag_type_EEESaIS3_EEixEm(ptr noundef nonnull align 8 dereferenceable(24) %6, i64 noundef %9) #3
  ret ptr %10
}

; Function Attrs: mustprogress nounwind uwtable
define linkonce_odr noundef nonnull align 4 dereferenceable(4) ptr @_ZNSt5arrayIN5draco9IndexTypeIjNS0_20PointIndex_tag_type_EEELm3EEixEm(ptr noundef nonnull align 4 dereferenceable(12) %0, i64 noundef %1) #5 comdat align 2 {
  %3 = alloca ptr, align 8
  %4 = alloca i64, align 8
  store ptr %0, ptr %3, align 8
  store i64 %1, ptr %4, align 8
  %5 = load ptr, ptr %3, align 8
  %6 = getelementptr inbounds %"struct.std::array", ptr %5, i32 0, i32 0
  %7 = load i64, ptr %4, align 8
  %8 = call noundef nonnull align 4 dereferenceable(4) ptr @_ZNSt14__array_traitsIN5draco9IndexTypeIjNS0_20PointIndex_tag_type_EEELm3EE6_S_refERA3_KS3_m(ptr noundef nonnull align 4 dereferenceable(12) %6, i64 noundef %7) #3
  ret ptr %8
}

; Function Attrs: mustprogress uwtable
define linkonce_odr noundef nonnull align 4 dereferenceable(12) ptr @_ZN5draco15IndexTypeVectorINS_9IndexTypeIjNS_19FaceIndex_tag_type_EEESt5arrayINS1_IjNS_20PointIndex_tag_type_EEELm3EEEixERKS3_(ptr noundef nonnull align 8 dereferenceable(24) %0, ptr noundef nonnull align 4 dereferenceable(4) %1) #4 comdat align 2 {
  %3 = alloca ptr, align 8
  %4 = alloca ptr, align 8
  store ptr %0, ptr %3, align 8
  store ptr %1, ptr %4, align 8
  %5 = load ptr, ptr %3, align 8
  %6 = getelementptr inbounds %"class.draco::IndexTypeVector", ptr %5, i32 0, i32 0
  %7 = load ptr, ptr %4, align 8
  %8 = call noundef i32 @_ZNK5draco9IndexTypeIjNS_19FaceIndex_tag_type_EE5valueEv(ptr noundef nonnull align 4 dereferenceable(4) %7)
  %9 = zext i32 %8 to i64
  %10 = call noundef nonnull align 4 dereferenceable(12) ptr @_ZNSt6vectorISt5arrayIN5draco9IndexTypeIjNS1_20PointIndex_tag_type_EEELm3EESaIS5_EEixEm(ptr noundef nonnull align 8 dereferenceable(24) %6, i64 noundef %9) #3
  ret ptr %10
}

; Function Attrs: mustprogress nounwind uwtable
define linkonce_odr noundef zeroext i1 @_ZNK5draco9IndexTypeIjNS_19FaceIndex_tag_type_EEltERKj(ptr noundef nonnull align 4 dereferenceable(4) %0, ptr noundef nonnull align 4 dereferenceable(4) %1) #5 comdat align 2 {
  %3 = alloca ptr, align 8
  %4 = alloca ptr, align 8
  store ptr %0, ptr %3, align 8
  store ptr %1, ptr %4, align 8
  %5 = load ptr, ptr %3, align 8
  %6 = getelementptr inbounds %"class.draco::IndexType", ptr %5, i32 0, i32 0
  %7 = load i32, ptr %6, align 4
  %8 = load ptr, ptr %4, align 8
  %9 = load i32, ptr %8, align 4
  %10 = icmp ult i32 %7, %9
  ret i1 %10
}

; Function Attrs: mustprogress uwtable
define linkonce_odr noundef i32 @_ZNK5draco4Mesh9num_facesEv(ptr noundef nonnull align 8 dereferenceable(216) %0) #4 comdat align 2 {
  %2 = alloca ptr, align 8
  store ptr %0, ptr %2, align 8
  %3 = load ptr, ptr %2, align 8
  %4 = getelementptr inbounds %"class.draco::Mesh", ptr %3, i32 0, i32 2
  %5 = call noundef i64 @_ZNK5draco15IndexTypeVectorINS_9IndexTypeIjNS_19FaceIndex_tag_type_EEESt5arrayINS1_IjNS_20PointIndex_tag_type_EEELm3EEE4sizeEv(ptr noundef nonnull align 8 dereferenceable(24) %4)
  %6 = trunc i64 %5 to i32
  ret i32 %6
}

; Function Attrs: mustprogress nounwind uwtable
define linkonce_odr void @_ZN5draco9IndexTypeIjNS_19FaceIndex_tag_type_EEC2Ej(ptr noundef nonnull align 4 dereferenceable(4) %0, i32 noundef %1) unnamed_addr #5 comdat align 2 {
  %3 = alloca ptr, align 8
  %4 = alloca i32, align 4
  store ptr %0, ptr %3, align 8
  store i32 %1, ptr %4, align 4
  %5 = load ptr, ptr %3, align 8
  %6 = getelementptr inbounds %"class.draco::IndexType", ptr %5, i32 0, i32 0
  %7 = load i32, ptr %4, align 4
  store i32 %7, ptr %6, align 4
  ret void
}

; Function Attrs: mustprogress uwtable
define void @_ZN5draco4Mesh25ApplyPointIdDeduplicationERKNS_15IndexTypeVectorINS_9IndexTypeIjNS_20PointIndex_tag_type_EEES4_EERKSt6vectorIS4_SaIS4_EE(ptr noundef nonnull align 8 dereferenceable(216) %0, ptr noundef nonnull align 8 dereferenceable(24) %1, ptr noundef nonnull align 8 dereferenceable(24) %2) unnamed_addr #4 align 2 {
  %4 = alloca ptr, align 8
  %5 = alloca ptr, align 8
  %6 = alloca ptr, align 8
  %7 = alloca %"class.draco::IndexType", align 4
  %8 = alloca i32, align 4
  %9 = alloca i32, align 4
  store ptr %0, ptr %4, align 8
  store ptr %1, ptr %5, align 8
  store ptr %2, ptr %6, align 8
  %10 = load ptr, ptr %4, align 8
  %11 = load ptr, ptr %5, align 8
  %12 = load ptr, ptr %6, align 8
  call void @_ZN5draco10PointCloud25ApplyPointIdDeduplicationERKNS_15IndexTypeVectorINS_9IndexTypeIjNS_20PointIndex_tag_type_EEES4_EERKSt6vectorIS4_SaIS4_EE(ptr noundef nonnull align 8 dereferenceable(164) %10, ptr noundef nonnull align 8 dereferenceable(24) %11, ptr noundef nonnull align 8 dereferenceable(24) %12)
  call void @_ZN5draco9IndexTypeIjNS_19FaceIndex_tag_type_EEC2Ej(ptr noundef nonnull align 4 dereferenceable(4) %7, i32 noundef 0)
  br label %13

13:                                               ; preds = %38, %3
  %14 = call noundef i32 @_ZNK5draco4Mesh9num_facesEv(ptr noundef nonnull align 8 dereferenceable(216) %10)
  store i32 %14, ptr %8, align 4
  %15 = call noundef zeroext i1 @_ZNK5draco9IndexTypeIjNS_19FaceIndex_tag_type_EEltERKj(ptr noundef nonnull align 4 dereferenceable(4) %7, ptr noundef nonnull align 4 dereferenceable(4) %8)
  br i1 %15, label %16, label %40

16:                                               ; preds = %13
  store i32 0, ptr %9, align 4
  br label %17

17:                                               ; preds = %34, %16
  %18 = load i32, ptr %9, align 4
  %19 = icmp slt i32 %18, 3
  br i1 %19, label %20, label %37

20:                                               ; preds = %17
  %21 = load ptr, ptr %5, align 8
  %22 = getelementptr inbounds %"class.draco::Mesh", ptr %10, i32 0, i32 2
  %23 = call noundef nonnull align 4 dereferenceable(12) ptr @_ZN5draco15IndexTypeVectorINS_9IndexTypeIjNS_19FaceIndex_tag_type_EEESt5arrayINS1_IjNS_20PointIndex_tag_type_EEELm3EEEixERKS3_(ptr noundef nonnull align 8 dereferenceable(24) %22, ptr noundef nonnull align 4 dereferenceable(4) %7)
  %24 = load i32, ptr %9, align 4
  %25 = sext i32 %24 to i64
  %26 = call noundef nonnull align 4 dereferenceable(4) ptr @_ZNSt5arrayIN5draco9IndexTypeIjNS0_20PointIndex_tag_type_EEELm3EEixEm(ptr noundef nonnull align 4 dereferenceable(12) %23, i64 noundef %25) #3
  %27 = call noundef nonnull align 4 dereferenceable(4) ptr @_ZNK5draco15IndexTypeVectorINS_9IndexTypeIjNS_20PointIndex_tag_type_EEES3_EixERKS3_(ptr noundef nonnull align 8 dereferenceable(24) %21, ptr noundef nonnull align 4 dereferenceable(4) %26)
  %28 = getelementptr inbounds %"class.draco::Mesh", ptr %10, i32 0, i32 2
  %29 = call noundef nonnull align 4 dereferenceable(12) ptr @_ZN5draco15IndexTypeVectorINS_9IndexTypeIjNS_19FaceIndex_tag_type_EEESt5arrayINS1_IjNS_20PointIndex_tag_type_EEELm3EEEixERKS3_(ptr noundef nonnull align 8 dereferenceable(24) %28, ptr noundef nonnull align 4 dereferenceable(4) %7)
  %30 = load i32, ptr %9, align 4
  %31 = sext i32 %30 to i64
  %32 = call noundef nonnull align 4 dereferenceable(4) ptr @_ZNSt5arrayIN5draco9IndexTypeIjNS0_20PointIndex_tag_type_EEELm3EEixEm(ptr noundef nonnull align 4 dereferenceable(12) %29, i64 noundef %31) #3
  %33 = call noundef nonnull align 4 dereferenceable(4) ptr @_ZN5draco9IndexTypeIjNS_20PointIndex_tag_type_EEaSERKS2_(ptr noundef nonnull align 4 dereferenceable(4) %32, ptr noundef nonnull align 4 dereferenceable(4) %27)
  br label %34

34:                                               ; preds = %20
  %35 = load i32, ptr %9, align 4
  %36 = add nsw i32 %35, 1
  store i32 %36, ptr %9, align 4
  br label %17, !llvm.loop !4

37:                                               ; preds = %17
  br label %38

38:                                               ; preds = %37
  %39 = call noundef nonnull align 4 dereferenceable(4) ptr @_ZN5draco9IndexTypeIjNS_19FaceIndex_tag_type_EEppEv(ptr noundef nonnull align 4 dereferenceable(4) %7)
  br label %13, !llvm.loop !6

40:                                               ; preds = %13
  ret void
}