; Function Attrs: mustprogress uwtable
define void @_ZN5draco4Mesh25ApplyPointIdDeduplicationERKNS_15IndexTypeVectorINS_9IndexTypeIjNS_20PointIndex_tag_type_EEES4_EERKSt6vectorIS4_SaIS4_EE(ptr noundef nonnull align 8 dereferenceable(216) %0, ptr noundef nonnull align 8 dereferenceable(24) %1, ptr noundef nonnull align 8 dereferenceable(24) %2) unnamed_addr #3 align 2 {
  tail call void @_ZN5draco10PointCloud25ApplyPointIdDeduplicationERKNS_15IndexTypeVectorINS_9IndexTypeIjNS_20PointIndex_tag_type_EEES4_EERKSt6vectorIS4_SaIS4_EE(ptr noundef nonnull align 8 dereferenceable(164) %0, ptr noundef nonnull align 8 dereferenceable(24) %1, ptr noundef nonnull align 8 dereferenceable(24) %2)
  %4 = getelementptr inbounds i8, ptr %0, i64 192
  %5 = getelementptr inbounds i8, ptr %0, i64 200
  %6 = load ptr, ptr %5, align 8
  %7 = load ptr, ptr %4, align 8
  %8 = ptrtoint ptr %6 to i64
  %9 = ptrtoint ptr %7 to i64
  %10 = sub i64 %8, %9
  %11 = sdiv exact i64 %10, 12
  %12 = and i64 %11, 4294967295
  %.not = icmp eq i64 %12, 0
  br i1 %.not, label %._crit_edge, label %.preheader

.preheader:                                       ; preds = %3, %22
  %indvars.iv13 = phi i64 [ %indvars.iv.next14, %22 ], [ 0, %3 ]
  br label %13

13:                                               ; preds = %.preheader, %13
  %indvars.iv = phi i64 [ 0, %.preheader ], [ %indvars.iv.next, %13 ]
  %14 = load ptr, ptr %4, align 8
  %15 = getelementptr inbounds %"struct.std::array", ptr %14, i64 %indvars.iv13
  %16 = getelementptr inbounds [3 x %"class.draco::IndexType.23"], ptr %15, i64 0, i64 %indvars.iv
  %17 = load i32, ptr %16, align 4
  %18 = zext i32 %17 to i64
  %19 = load ptr, ptr %1, align 8
  %20 = getelementptr inbounds %"class.draco::IndexType.23", ptr %19, i64 %18
  %21 = load i32, ptr %20, align 4
  store i32 %21, ptr %16, align 4
  %indvars.iv.next = add nuw nsw i64 %indvars.iv, 1
  %exitcond.not = icmp eq i64 %indvars.iv.next, 3
  br i1 %exitcond.not, label %22, label %13, !llvm.loop !6

22:                                               ; preds = %13
  %indvars.iv.next14 = add nuw nsw i64 %indvars.iv13, 1
  %23 = load ptr, ptr %5, align 8
  %24 = load ptr, ptr %4, align 8
  %25 = ptrtoint ptr %23 to i64
  %26 = ptrtoint ptr %24 to i64
  %27 = sub i64 %25, %26
  %28 = sdiv exact i64 %27, 12
  %29 = and i64 %28, 4294967295
  %30 = icmp ult i64 %indvars.iv.next14, %29
  br i1 %30, label %.preheader, label %._crit_edge, !llvm.loop !7

._crit_edge:                                      ; preds = %22, %3
  ret void
}